target datalayout = "e-m:e-p270:32:32-p271:32:32-p272:64:64-i64:64-i128:128-f80:128-n8:16:32:64-S128"
target triple = "x86_64-pc-linux-gnu"

%struct.WOLFSSL = type <{ ptr, ptr, ptr, ptr, [48 x i8], [48 x i8], ptr, ptr, ptr, ptr, ptr, ptr, ptr, ptr, ptr, ptr, ptr, ptr, ptr, i32, [4 x i8], %struct.WOLFSSL_CIPHER, ptr, %struct.Ciphers, %struct.Ciphers, [8 x i8], %struct.Buffers, ptr, ptr, %struct.WOLFSSL_ALERT_HISTORY, %struct.WOLFSSL_ALERT, i32, i32, i32, i32, i32, i32, i32, i16, [2 x i8], i32, i8, %struct.RecordLayerHeader, %struct.MsgsReceived, %struct.ProtocolVersion, %struct.ProtocolVersion, %struct.CipherSpecs, [2 x i8], %struct.Keys, %struct.Options, ptr, i8, i8, i16, [10 x i16], i8, i8, i16, i16, [38 x i8], i32, i32, [4 x i8], ptr, i8, i8, [6 x i8], ptr, ptr, i16, i8, i8, i32, i8, [3 x i8], i32, %struct.OneTimeAuth, ptr }>
%struct.WOLFSSL_CIPHER = type { i8, i8, ptr }
%struct.Ciphers = type { ptr, ptr, ptr, ptr, i8, i8 }
%struct.Buffers = type { %struct.bufferStatic, %struct.bufferStatic, %struct.WOLFSSL_BUFFER_INFO, %struct.WOLFSSL_BUFFER_INFO, %struct.WOLFSSL_BUFFER_INFO, %struct.WOLFSSL_BUFFER_INFO, i32, i32, i8, i8, i8, i8, %struct.WOLFSSL_BUFFER_INFO, %struct.WOLFSSL_BUFFER_INFO, %struct.WOLFSSL_BUFFER_INFO, %struct.WOLFSSL_BUFFER_INFO, ptr, ptr, ptr, i8, i8, i32, i32, ptr, i32, [1 x ptr] }
%struct.bufferStatic = type { [5 x i8], ptr, i32, i32, i32, i8, i8 }
%struct.WOLFSSL_BUFFER_INFO = type { ptr, i32 }
%struct.WOLFSSL_ALERT_HISTORY = type { %struct.WOLFSSL_ALERT, %struct.WOLFSSL_ALERT }
%struct.WOLFSSL_ALERT = type { i32, i32 }
%struct.RecordLayerHeader = type { i8, i8, i8, [2 x i8] }
%struct.MsgsReceived = type { i32 }
%struct.ProtocolVersion = type { i8, i8 }
%struct.CipherSpecs = type { i16, i16, i16, i16, i8, i8, i8, i8, i8, i8, i8, i8 }
%struct.Keys = type { [64 x i8], [64 x i8], [32 x i8], [32 x i8], [16 x i8], [16 x i8], [8 x i8], [12 x i8], [12 x i8], i32, i32, i32, i32, i32, i32, i8, i8, i8, i8 }
%struct.Options = type { i64, i64, i8, i8, i8, i8, i8, i8, i8, i8, i8, i8, i8, i8, i8, i8, i8, i8, i8, i8, i8, i8, i8, i16, i16, i16, i16, i16, i8 }
%struct.OneTimeAuth = type { ptr, i8 }
%struct.TLSX = type { i32, ptr, i32, i8, ptr }
%struct.KeyShareEntry = type { i16, ptr, i32, ptr, i32, ptr, i32, ptr, i32, ptr }

; Function Attrs: nounwind uwtable
define internal ptr @TLSX_New(i32 noundef %0, ptr noundef %1, ptr noundef %2) #0 {
  %4 = alloca i32, align 4
  %5 = alloca ptr, align 8
  %6 = alloca ptr, align 8
  %7 = alloca ptr, align 8
  store i32 %0, ptr %4, align 4, !tbaa !12
  store ptr %1, ptr %5, align 8, !tbaa !54
  store ptr %2, ptr %6, align 8, !tbaa !54
  call void @llvm.lifetime.start.p0(i64 8, ptr %7) #8
  %8 = call ptr @wolfSSL_Malloc(i64 noundef 32)
  store ptr %8, ptr %7, align 8, !tbaa !77
  %9 = load ptr, ptr %7, align 8, !tbaa !77
  %10 = icmp ne ptr %9, null
  br i1 %10, label %11, label %22

11:                                               ; preds = %3
  %12 = load i32, ptr %4, align 4, !tbaa !12
  %13 = load ptr, ptr %7, align 8, !tbaa !77
  %14 = getelementptr inbounds nuw %struct.TLSX, ptr %13, i32 0, i32 0
  store i32 %12, ptr %14, align 8, !tbaa !78
  %15 = load ptr, ptr %5, align 8, !tbaa !54
  %16 = load ptr, ptr %7, align 8, !tbaa !77
  %17 = getelementptr inbounds nuw %struct.TLSX, ptr %16, i32 0, i32 1
  store ptr %15, ptr %17, align 8, !tbaa !103
  %18 = load ptr, ptr %7, align 8, !tbaa !77
  %19 = getelementptr inbounds nuw %struct.TLSX, ptr %18, i32 0, i32 3
  store i8 0, ptr %19, align 4, !tbaa !104
  %20 = load ptr, ptr %7, align 8, !tbaa !77
  %21 = getelementptr inbounds nuw %struct.TLSX, ptr %20, i32 0, i32 4
  store ptr null, ptr %21, align 8, !tbaa !80
  br label %22

22:                                               ; preds = %11, %3
  %23 = load ptr, ptr %7, align 8, !tbaa !77
  call void @llvm.lifetime.end.p0(i64 8, ptr %7) #8
  ret ptr %23
}

; Function Attrs: nounwind uwtable
define internal i32 @TLSX_KeyShare_New(ptr noundef %0, i32 noundef %1, ptr noundef %2, ptr noundef %3) #0 {
  %5 = alloca i32, align 4
  %6 = alloca ptr, align 8
  %7 = alloca i32, align 4
  %8 = alloca ptr, align 8
  %9 = alloca ptr, align 8
  %10 = alloca ptr, align 8
  %11 = alloca ptr, align 8
  %12 = alloca i32, align 4
  store ptr %0, ptr %6, align 8, !tbaa !190
  store i32 %1, ptr %7, align 4, !tbaa !12
  store ptr %2, ptr %8, align 8, !tbaa !54
  store ptr %3, ptr %9, align 8, !tbaa !190
  call void @llvm.lifetime.start.p0(i64 8, ptr %10) #8
  call void @llvm.lifetime.start.p0(i64 8, ptr %11) #8
  %13 = call ptr @wolfSSL_Malloc(i64 noundef 80)
  store ptr %13, ptr %10, align 8, !tbaa !178
  %14 = load ptr, ptr %10, align 8, !tbaa !178
  %15 = icmp eq ptr %14, null
  br i1 %15, label %16, label %17

16:                                               ; preds = %4
  store i32 -125, ptr %5, align 4
  store i32 1, ptr %12, align 4
  br label %37

17:                                               ; preds = %4
  %18 = load ptr, ptr %10, align 8, !tbaa !178
  call void @llvm.memset.p0.i64(ptr align 8 %18, i8 0, i64 80, i1 false)
  %19 = load i32, ptr %7, align 4, !tbaa !12
  %20 = trunc i32 %19 to i16
  %21 = load ptr, ptr %10, align 8, !tbaa !178
  %22 = getelementptr inbounds nuw %struct.KeyShareEntry, ptr %21, i32 0, i32 0
  store i16 %20, ptr %22, align 8, !tbaa !180
  br label %23

23:                                               ; preds = %27, %17
  %24 = load ptr, ptr %6, align 8, !tbaa !190
  %25 = load ptr, ptr %24, align 8, !tbaa !178
  %26 = icmp ne ptr %25, null
  br i1 %26, label %27, label %32

27:                                               ; preds = %23
  %28 = load ptr, ptr %6, align 8, !tbaa !190
  %29 = load ptr, ptr %28, align 8, !tbaa !178
  %30 = getelementptr inbounds nuw %struct.KeyShareEntry, ptr %29, i32 0, i32 9
  store ptr %30, ptr %11, align 8, !tbaa !190
  %31 = load ptr, ptr %11, align 8, !tbaa !190
  store ptr %31, ptr %6, align 8, !tbaa !190
  br label %23, !llvm.loop !201

32:                                               ; preds = %23
  %33 = load ptr, ptr %10, align 8, !tbaa !178
  %34 = load ptr, ptr %6, align 8, !tbaa !190
  store ptr %33, ptr %34, align 8, !tbaa !178
  %35 = load ptr, ptr %10, align 8, !tbaa !178
  %36 = load ptr, ptr %9, align 8, !tbaa !190
  store ptr %35, ptr %36, align 8, !tbaa !178
  store i32 0, ptr %5, align 4
  store i32 1, ptr %12, align 4
  br label %37

37:                                               ; preds = %32, %16
  call void @llvm.lifetime.end.p0(i64 8, ptr %11) #8
  call void @llvm.lifetime.end.p0(i64 8, ptr %10) #8
  %38 = load i32, ptr %5, align 4
  ret i32 %38
}

; Function Attrs: nounwind uwtable
define i32 @TLSX_Push(ptr noundef %0, i32 noundef %1, ptr noundef %2, ptr noundef %3) #0 {
  %5 = alloca i32, align 4
  %6 = alloca ptr, align 8
  %7 = alloca i32, align 4
  %8 = alloca ptr, align 8
  %9 = alloca ptr, align 8
  %10 = alloca ptr, align 8
  %11 = alloca i32, align 4
  %12 = alloca ptr, align 8
  store ptr %0, ptr %6, align 8, !tbaa !75
  store i32 %1, ptr %7, align 4, !tbaa !12
  store ptr %2, ptr %8, align 8, !tbaa !54
  store ptr %3, ptr %9, align 8, !tbaa !54
  call void @llvm.lifetime.start.p0(i64 8, ptr %10) #8
  %13 = load i32, ptr %7, align 4, !tbaa !12
  %14 = load ptr, ptr %8, align 8, !tbaa !54
  %15 = load ptr, ptr %9, align 8, !tbaa !54
  %16 = call ptr @TLSX_New(i32 noundef %13, ptr noundef %14, ptr noundef %15)
  store ptr %16, ptr %10, align 8, !tbaa !77
  %17 = load ptr, ptr %10, align 8, !tbaa !77
  %18 = icmp eq ptr %17, null
  br i1 %18, label %19, label %20

19:                                               ; preds = %4
  store i32 -125, ptr %5, align 4
  store i32 1, ptr %11, align 4
  br label %60

20:                                               ; preds = %4
  %21 = load ptr, ptr %6, align 8, !tbaa !75
  %22 = load ptr, ptr %21, align 8, !tbaa !77
  %23 = load ptr, ptr %10, align 8, !tbaa !77
  %24 = getelementptr inbounds nuw %struct.TLSX, ptr %23, i32 0, i32 4
  store ptr %22, ptr %24, align 8, !tbaa !80
  %25 = load ptr, ptr %10, align 8, !tbaa !77
  %26 = load ptr, ptr %6, align 8, !tbaa !75
  store ptr %25, ptr %26, align 8, !tbaa !77
  br label %27

27:                                               ; preds = %54, %20
  %28 = load ptr, ptr %10, align 8, !tbaa !77
  %29 = getelementptr inbounds nuw %struct.TLSX, ptr %28, i32 0, i32 4
  %30 = load ptr, ptr %29, align 8, !tbaa !80
  %31 = icmp ne ptr %30, null
  br i1 %31, label %32, label %53

32:                                               ; preds = %27
  %33 = load ptr, ptr %10, align 8, !tbaa !77
  %34 = getelementptr inbounds nuw %struct.TLSX, ptr %33, i32 0, i32 4
  %35 = load ptr, ptr %34, align 8, !tbaa !80
  %36 = getelementptr inbounds nuw %struct.TLSX, ptr %35, i32 0, i32 0
  %37 = load i32, ptr %36, align 8, !tbaa !78
  %38 = load i32, ptr %7, align 4, !tbaa !12
  %39 = icmp eq i32 %37, %38
  br i1 %39, label %40, label %53

40:                                               ; preds = %32
  call void @llvm.lifetime.start.p0(i64 8, ptr %12) #8
  %41 = load ptr, ptr %10, align 8, !tbaa !77
  %42 = getelementptr inbounds nuw %struct.TLSX, ptr %41, i32 0, i32 4
  %43 = load ptr, ptr %42, align 8, !tbaa !80
  store ptr %43, ptr %12, align 8, !tbaa !77
  %44 = load ptr, ptr %12, align 8, !tbaa !77
  %45 = getelementptr inbounds nuw %struct.TLSX, ptr %44, i32 0, i32 4
  %46 = load ptr, ptr %45, align 8, !tbaa !80
  %47 = load ptr, ptr %10, align 8, !tbaa !77
  %48 = getelementptr inbounds nuw %struct.TLSX, ptr %47, i32 0, i32 4
  store ptr %46, ptr %48, align 8, !tbaa !80
  %49 = load ptr, ptr %12, align 8, !tbaa !77
  %50 = getelementptr inbounds nuw %struct.TLSX, ptr %49, i32 0, i32 4
  store ptr null, ptr %50, align 8, !tbaa !80
  %51 = load ptr, ptr %12, align 8, !tbaa !77
  %52 = load ptr, ptr %9, align 8, !tbaa !54
  call void @TLSX_FreeAll(ptr noundef %51, ptr noundef %52)
  store i32 2, ptr %11, align 4
  call void @llvm.lifetime.end.p0(i64 8, ptr %12) #8
  br label %59

53:                                               ; preds = %32, %27
  br label %54

54:                                               ; preds = %53
  %55 = load ptr, ptr %10, align 8, !tbaa !77
  %56 = getelementptr inbounds nuw %struct.TLSX, ptr %55, i32 0, i32 4
  %57 = load ptr, ptr %56, align 8, !tbaa !80
  store ptr %57, ptr %10, align 8, !tbaa !77
  %58 = icmp ne ptr %57, null
  br i1 %58, label %27, label %59, !llvm.loop !106

59:                                               ; preds = %54, %40
  store i32 0, ptr %5, align 4
  store i32 1, ptr %11, align 4
  br label %60

60:                                               ; preds = %59, %19
  call void @llvm.lifetime.end.p0(i64 8, ptr %10) #8
  %61 = load i32, ptr %5, align 4
  ret i32 %61
}

; Function Attrs: nounwind uwtable
define ptr @TLSX_Find(ptr noundef %0, i32 noundef %1) #0 {
  %3 = alloca ptr, align 8
  %4 = alloca i32, align 4
  %5 = alloca ptr, align 8
  store ptr %0, ptr %3, align 8, !tbaa !77
  store i32 %1, ptr %4, align 4, !tbaa !12
  call void @llvm.lifetime.start.p0(i64 8, ptr %5) #8
  %6 = load ptr, ptr %3, align 8, !tbaa !77
  store ptr %6, ptr %5, align 8, !tbaa !77
  br label %7

7:                                                ; preds = %18, %2
  %8 = load ptr, ptr %5, align 8, !tbaa !77
  %9 = icmp ne ptr %8, null
  br i1 %9, label %10, label %16

10:                                               ; preds = %7
  %11 = load ptr, ptr %5, align 8, !tbaa !77
  %12 = getelementptr inbounds nuw %struct.TLSX, ptr %11, i32 0, i32 0
  %13 = load i32, ptr %12, align 8, !tbaa !78
  %14 = load i32, ptr %4, align 4, !tbaa !12
  %15 = icmp ne i32 %13, %14
  br label %16

16:                                               ; preds = %10, %7
  %17 = phi i1 [ false, %7 ], [ %15, %10 ]
  br i1 %17, label %18, label %22

18:                                               ; preds = %16
  %19 = load ptr, ptr %5, align 8, !tbaa !77
  %20 = getelementptr inbounds nuw %struct.TLSX, ptr %19, i32 0, i32 4
  %21 = load ptr, ptr %20, align 8, !tbaa !80
  store ptr %21, ptr %5, align 8, !tbaa !77
  br label %7, !llvm.loop !110

22:                                               ; preds = %16
  %23 = load ptr, ptr %5, align 8, !tbaa !77
  call void @llvm.lifetime.end.p0(i64 8, ptr %5) #8
  ret ptr %23
}

; Function Attrs: nounwind uwtable
define i32 @TLSX_KeyShare_Use(ptr noundef %0, i16 noundef zeroext %1, i16 noundef zeroext %2, ptr noundef %3, ptr noundef %4, ptr noundef %5) #0 {
  %7 = alloca i32, align 4
  %8 = alloca ptr, align 8
  %9 = alloca i16, align 2
  %10 = alloca i16, align 2
  %11 = alloca ptr, align 8
  %12 = alloca ptr, align 8
  %13 = alloca ptr, align 8
  %14 = alloca i32, align 4
  %15 = alloca ptr, align 8
  %16 = alloca ptr, align 8
  %17 = alloca i32, align 4
  %18 = alloca ptr, align 8
  store ptr %0, ptr %8, align 8, !tbaa !3
  store i16 %1, ptr %9, align 2, !tbaa !73
  store i16 %2, ptr %10, align 2, !tbaa !73
  store ptr %3, ptr %11, align 8, !tbaa !8
  store ptr %4, ptr %12, align 8, !tbaa !190
  store ptr %5, ptr %13, align 8, !tbaa !75
  call void @llvm.lifetime.start.p0(i64 4, ptr %14) #8
  store i32 0, ptr %14, align 4, !tbaa !12
  call void @llvm.lifetime.start.p0(i64 8, ptr %15) #8
  call void @llvm.lifetime.start.p0(i64 8, ptr %16) #8
  store ptr null, ptr %16, align 8, !tbaa !178
  %19 = load ptr, ptr %13, align 8, !tbaa !75
  %20 = load ptr, ptr %19, align 8, !tbaa !77
  %21 = call ptr @TLSX_Find(ptr noundef %20, i32 noundef 51)
  store ptr %21, ptr %15, align 8, !tbaa !77
  %22 = load ptr, ptr %15, align 8, !tbaa !77
  %23 = icmp eq ptr %22, null
  br i1 %23, label %24, label %42

24:                                               ; preds = %6
  %25 = load ptr, ptr %13, align 8, !tbaa !75
  %26 = load ptr, ptr %8, align 8, !tbaa !3
  %27 = getelementptr inbounds nuw %struct.WOLFSSL, ptr %26, i32 0, i32 12
  %28 = load ptr, ptr %27, align 16, !tbaa !52
  %29 = call i32 @TLSX_Push(ptr noundef %25, i32 noundef 51, ptr noundef null, ptr noundef %28)
  store i32 %29, ptr %14, align 4, !tbaa !12
  %30 = load i32, ptr %14, align 4, !tbaa !12
  %31 = icmp ne i32 %30, 0
  br i1 %31, label %32, label %34

32:                                               ; preds = %24
  %33 = load i32, ptr %14, align 4, !tbaa !12
  store i32 %33, ptr %7, align 4
  store i32 1, ptr %17, align 4
  br label %119

34:                                               ; preds = %24
  %35 = load ptr, ptr %13, align 8, !tbaa !75
  %36 = load ptr, ptr %35, align 8, !tbaa !77
  %37 = call ptr @TLSX_Find(ptr noundef %36, i32 noundef 51)
  store ptr %37, ptr %15, align 8, !tbaa !77
  %38 = load ptr, ptr %15, align 8, !tbaa !77
  %39 = icmp eq ptr %38, null
  br i1 %39, label %40, label %41

40:                                               ; preds = %34
  store i32 -125, ptr %7, align 4
  store i32 1, ptr %17, align 4
  br label %119

41:                                               ; preds = %34
  br label %42

42:                                               ; preds = %41, %6
  %43 = load ptr, ptr %15, align 8, !tbaa !77
  %44 = getelementptr inbounds nuw %struct.TLSX, ptr %43, i32 0, i32 3
  store i8 0, ptr %44, align 4, !tbaa !104
  %45 = load ptr, ptr %15, align 8, !tbaa !77
  %46 = getelementptr inbounds nuw %struct.TLSX, ptr %45, i32 0, i32 1
  %47 = load ptr, ptr %46, align 8, !tbaa !103
  store ptr %47, ptr %16, align 8, !tbaa !178
  br label %48

48:                                               ; preds = %60, %42
  %49 = load ptr, ptr %16, align 8, !tbaa !178
  %50 = icmp ne ptr %49, null
  br i1 %50, label %51, label %64

51:                                               ; preds = %48
  %52 = load ptr, ptr %16, align 8, !tbaa !178
  %53 = getelementptr inbounds nuw %struct.KeyShareEntry, ptr %52, i32 0, i32 0
  %54 = load i16, ptr %53, align 8, !tbaa !180
  %55 = zext i16 %54 to i32
  %56 = load i16, ptr %9, align 2, !tbaa !73
  %57 = zext i16 %56 to i32
  %58 = icmp eq i32 %55, %57
  br i1 %58, label %59, label %60

59:                                               ; preds = %51
  br label %64

60:                                               ; preds = %51
  %61 = load ptr, ptr %16, align 8, !tbaa !178
  %62 = getelementptr inbounds nuw %struct.KeyShareEntry, ptr %61, i32 0, i32 9
  %63 = load ptr, ptr %62, align 8, !tbaa !196
  store ptr %63, ptr %16, align 8, !tbaa !178
  br label %48, !llvm.loop !198

64:                                               ; preds = %59, %48
  %65 = load ptr, ptr %16, align 8, !tbaa !178
  %66 = icmp eq ptr %65, null
  br i1 %66, label %67, label %81

67:                                               ; preds = %64
  %68 = load ptr, ptr %15, align 8, !tbaa !77
  %69 = getelementptr inbounds nuw %struct.TLSX, ptr %68, i32 0, i32 1
  %70 = load i16, ptr %9, align 2, !tbaa !73
  %71 = zext i16 %70 to i32
  %72 = load ptr, ptr %8, align 8, !tbaa !3
  %73 = getelementptr inbounds nuw %struct.WOLFSSL, ptr %72, i32 0, i32 12
  %74 = load ptr, ptr %73, align 16, !tbaa !52
  %75 = call i32 @TLSX_KeyShare_New(ptr noundef %69, i32 noundef %71, ptr noundef %74, ptr noundef %16)
  store i32 %75, ptr %14, align 4, !tbaa !12
  %76 = load i32, ptr %14, align 4, !tbaa !12
  %77 = icmp ne i32 %76, 0
  br i1 %77, label %78, label %80

78:                                               ; preds = %67
  %79 = load i32, ptr %14, align 4, !tbaa !12
  store i32 %79, ptr %7, align 4
  store i32 1, ptr %17, align 4
  br label %119

80:                                               ; preds = %67
  br label %81

81:                                               ; preds = %80, %64
  %82 = load ptr, ptr %11, align 8, !tbaa !8
  %83 = icmp ne ptr %82, null
  br i1 %83, label %84, label %103

84:                                               ; preds = %81
  br label %85

85:                                               ; preds = %84
  call void @llvm.lifetime.start.p0(i64 8, ptr %18) #8
  %86 = load ptr, ptr %16, align 8, !tbaa !178
  %87 = getelementptr inbounds nuw %struct.KeyShareEntry, ptr %86, i32 0, i32 1
  %88 = load ptr, ptr %87, align 8, !tbaa !199
  store ptr %88, ptr %18, align 8, !tbaa !54
  %89 = load ptr, ptr %18, align 8, !tbaa !54
  %90 = icmp ne ptr %89, null
  br i1 %90, label %91, label %93

91:                                               ; preds = %85
  %92 = load ptr, ptr %18, align 8, !tbaa !54
  call void @wolfSSL_Free(ptr noundef %92)
  br label %93

93:                                               ; preds = %91, %85
  call void @llvm.lifetime.end.p0(i64 8, ptr %18) #8
  br label %94

94:                                               ; preds = %93
  br label %95

95:                                               ; preds = %94
  %96 = load ptr, ptr %11, align 8, !tbaa !8
  %97 = load ptr, ptr %16, align 8, !tbaa !178
  %98 = getelementptr inbounds nuw %struct.KeyShareEntry, ptr %97, i32 0, i32 1
  store ptr %96, ptr %98, align 8, !tbaa !199
  %99 = load i16, ptr %10, align 2, !tbaa !73
  %100 = zext i16 %99 to i32
  %101 = load ptr, ptr %16, align 8, !tbaa !178
  %102 = getelementptr inbounds nuw %struct.KeyShareEntry, ptr %101, i32 0, i32 2
  store i32 %100, ptr %102, align 8, !tbaa !200
  br label %112

103:                                              ; preds = %81
  %104 = load ptr, ptr %8, align 8, !tbaa !3
  %105 = load ptr, ptr %16, align 8, !tbaa !178
  %106 = call i32 @TLSX_KeyShare_GenKey(ptr noundef %104, ptr noundef %105)
  store i32 %106, ptr %14, align 4, !tbaa !12
  %107 = load i32, ptr %14, align 4, !tbaa !12
  %108 = icmp ne i32 %107, 0
  br i1 %108, label %109, label %111

109:                                              ; preds = %103
  %110 = load i32, ptr %14, align 4, !tbaa !12
  store i32 %110, ptr %7, align 4
  store i32 1, ptr %17, align 4
  br label %119

111:                                              ; preds = %103
  br label %112

112:                                              ; preds = %111, %95
  %113 = load ptr, ptr %12, align 8, !tbaa !190
  %114 = icmp ne ptr %113, null
  br i1 %114, label %115, label %118

115:                                              ; preds = %112
  %116 = load ptr, ptr %16, align 8, !tbaa !178
  %117 = load ptr, ptr %12, align 8, !tbaa !190
  store ptr %116, ptr %117, align 8, !tbaa !178
  br label %118

118:                                              ; preds = %115, %112
  store i32 0, ptr %7, align 4
  store i32 1, ptr %17, align 4
  br label %119

119:                                              ; preds = %118, %109, %78, %40, %32
  call void @llvm.lifetime.end.p0(i64 8, ptr %16) #8
  call void @llvm.lifetime.end.p0(i64 8, ptr %15) #8
  call void @llvm.lifetime.end.p0(i64 4, ptr %14) #8
  %120 = load i32, ptr %7, align 4
  ret i32 %120
}