; Function Attrs: nounwind uwtable
define i32 @TLSX_KeyShare_Use(ptr noundef %0, i16 noundef zeroext %1, i16 noundef zeroext %2, ptr noundef %3, ptr noundef writeonly captures(address_is_null) %4, ptr noundef captures(none) %5) local_unnamed_addr #0 {
  %7 = load ptr, ptr %5, align 8, !tbaa !59
  %.not6.i = icmp eq ptr %7, null
  br i1 %.not6.i, label %.loopexit66, label %.lr.ph.i

.lr.ph.i:                                         ; preds = %6, %9
  %.07.i = phi ptr [ %11, %9 ], [ %7, %6 ]
  %8 = load i32, ptr %.07.i, align 8, !tbaa !60
  %.not5.i = icmp eq i32 %8, 51
  br i1 %.not5.i, label %TLSX_Find.exit, label %9

9:                                                ; preds = %.lr.ph.i
  %10 = getelementptr inbounds nuw i8, ptr %.07.i, i64 24
  %11 = load ptr, ptr %10, align 8, !tbaa !63
  %.not.i = icmp eq ptr %11, null
  br i1 %.not.i, label %.loopexit66, label %.lr.ph.i, !llvm.loop !101

.loopexit66:                                      ; preds = %9, %6
  %12 = tail call ptr @wolfSSL_Malloc(i64 noundef 32) #17
  %.not.i.i = icmp eq ptr %12, null
  br i1 %.not.i.i, label %TLSX_Push.exit, label %13

13:                                               ; preds = %.loopexit66
  store i32 51, ptr %12, align 8, !tbaa !60
  %14 = getelementptr inbounds nuw i8, ptr %12, i64 8
  store ptr null, ptr %14, align 8, !tbaa !82
  %15 = getelementptr inbounds nuw i8, ptr %12, i64 20
  store i8 0, ptr %15, align 4, !tbaa !83
  %16 = getelementptr inbounds nuw i8, ptr %12, i64 24
  store ptr null, ptr %16, align 8, !tbaa !63
  %17 = load ptr, ptr %5, align 8, !tbaa !59
  store ptr %17, ptr %16, align 8, !tbaa !63
  store ptr %12, ptr %5, align 8, !tbaa !59
  br label %18

18:                                               ; preds = %21, %13
  %.018.i = phi ptr [ %12, %13 ], [ %20, %21 ]
  %19 = getelementptr inbounds nuw i8, ptr %.018.i, i64 24
  %20 = load ptr, ptr %19, align 8, !tbaa !63
  %.not.i42 = icmp eq ptr %20, null
  br i1 %.not.i42, label %.loopexit64, label %21

21:                                               ; preds = %18
  %22 = load i32, ptr %20, align 8, !tbaa !60
  %23 = icmp eq i32 %22, 51
  br i1 %23, label %24, label %18, !llvm.loop !99

24:                                               ; preds = %21
  %25 = getelementptr inbounds nuw i8, ptr %.018.i, i64 24
  %26 = getelementptr inbounds nuw i8, ptr %20, i64 24
  %27 = load ptr, ptr %26, align 8, !tbaa !63
  store ptr %27, ptr %25, align 8, !tbaa !63
  store ptr null, ptr %26, align 8, !tbaa !63
  tail call void @TLSX_FreeAll(ptr noundef nonnull %20, ptr readnone poison)
  %.pre = load ptr, ptr %5, align 8, !tbaa !59
  br label %.loopexit64

.loopexit64:                                      ; preds = %18, %24
  %28 = phi ptr [ %.pre, %24 ], [ %12, %18 ]
  %.not6.i43 = icmp eq ptr %28, null
  br i1 %.not6.i43, label %TLSX_Push.exit, label %.lr.ph.i44

.lr.ph.i44:                                       ; preds = %.loopexit64, %30
  %.07.i45 = phi ptr [ %32, %30 ], [ %28, %.loopexit64 ]
  %29 = load i32, ptr %.07.i45, align 8, !tbaa !60
  %.not5.i46 = icmp eq i32 %29, 51
  br i1 %.not5.i46, label %TLSX_Find.exit, label %30

30:                                               ; preds = %.lr.ph.i44
  %31 = getelementptr inbounds nuw i8, ptr %.07.i45, i64 24
  %32 = load ptr, ptr %31, align 8, !tbaa !63
  %.not.i47 = icmp eq ptr %32, null
  br i1 %.not.i47, label %TLSX_Push.exit, label %.lr.ph.i44, !llvm.loop !101

TLSX_Find.exit:                                   ; preds = %.lr.ph.i, %.lr.ph.i44
  %.026 = phi ptr [ %.07.i45, %.lr.ph.i44 ], [ %.07.i, %.lr.ph.i ]
  %33 = getelementptr inbounds nuw i8, ptr %.026, i64 20
  store i8 0, ptr %33, align 4, !tbaa !83
  %34 = getelementptr inbounds nuw i8, ptr %.026, i64 8
  %storemerge73 = load ptr, ptr %34, align 8, !tbaa !108
  %.not3674 = icmp eq ptr %storemerge73, null
  br i1 %.not3674, label %._crit_edge, label %.lr.ph

.lr.ph:                                           ; preds = %TLSX_Find.exit, %37
  %storemerge75 = phi ptr [ %storemerge, %37 ], [ %storemerge73, %TLSX_Find.exit ]
  %35 = load i16, ptr %storemerge75, align 8, !tbaa !148
  %36 = icmp eq i16 %35, %1
  br i1 %36, label %.loopexit, label %37

37:                                               ; preds = %.lr.ph
  %38 = getelementptr inbounds nuw i8, ptr %storemerge75, i64 72
  %storemerge = load ptr, ptr %38, align 8, !tbaa !108
  %.not36 = icmp eq ptr %storemerge, null
  br i1 %.not36, label %._crit_edge, label %.lr.ph, !llvm.loop !174

._crit_edge:                                      ; preds = %37, %TLSX_Find.exit
  %39 = tail call ptr @wolfSSL_Malloc(i64 noundef 80) #17
  %40 = icmp eq ptr %39, null
  br i1 %40, label %TLSX_Push.exit, label %41

41:                                               ; preds = %._crit_edge
  tail call void @llvm.memset.p0.i64(ptr noundef nonnull align 8 dereferenceable(80) %39, i8 0, i64 80, i1 false)
  store i16 %1, ptr %39, align 8, !tbaa !148
  br label %42

42:                                               ; preds = %42, %41
  %.011.i = phi ptr [ %34, %41 ], [ %44, %42 ]
  %43 = load ptr, ptr %.011.i, align 8, !tbaa !157
  %.not.i50 = icmp eq ptr %43, null
  %44 = getelementptr inbounds nuw i8, ptr %43, i64 72
  br i1 %.not.i50, label %TLSX_KeyShare_New.exit.thread, label %42, !llvm.loop !175

TLSX_KeyShare_New.exit.thread:                    ; preds = %42
  store ptr %39, ptr %.011.i, align 8, !tbaa !157
  br label %.loopexit

.loopexit:                                        ; preds = %.lr.ph, %TLSX_KeyShare_New.exit.thread
  %.056 = phi ptr [ %39, %TLSX_KeyShare_New.exit.thread ], [ %storemerge75, %.lr.ph ]
  %.not38 = icmp eq ptr %3, null
  br i1 %.not38, label %52, label %45

45:                                               ; preds = %.loopexit
  %46 = getelementptr inbounds nuw i8, ptr %.056, i64 8
  %47 = load ptr, ptr %46, align 8, !tbaa !164
  %.not40 = icmp eq ptr %47, null
  br i1 %.not40, label %49, label %48

48:                                               ; preds = %45
  tail call void @wolfSSL_Free(ptr noundef nonnull %47) #17
  br label %49

49:                                               ; preds = %48, %45
  store ptr %3, ptr %46, align 8, !tbaa !164
  %50 = zext i16 %2 to i32
  %51 = getelementptr inbounds nuw i8, ptr %.056, i64 16
  store i32 %50, ptr %51, align 8, !tbaa !165
  br label %54

52:                                               ; preds = %.loopexit
  %53 = tail call i32 @TLSX_KeyShare_GenKey(ptr noundef %0, ptr noundef nonnull %.056)
  %.not39 = icmp eq i32 %53, 0
  br i1 %.not39, label %54, label %TLSX_Push.exit

54:                                               ; preds = %52, %49
  %.not41 = icmp eq ptr %4, null
  br i1 %.not41, label %TLSX_Push.exit, label %55

55:                                               ; preds = %54
  store ptr %.056, ptr %4, align 8, !tbaa !157
  br label %TLSX_Push.exit

TLSX_Push.exit:                                   ; preds = %30, %.loopexit64, %._crit_edge, %.loopexit66, %54, %55, %52
  %.0 = phi i32 [ %53, %52 ], [ 0, %55 ], [ 0, %54 ], [ -125, %.loopexit66 ], [ -125, %._crit_edge ], [ -125, %.loopexit64 ], [ -125, %30 ]
  ret i32 %.0
}